
Robotic_Arm.elf:     file format elf32-avr

Sections:
Idx Name          Size      VMA       LMA       File off  Algn
  0 .data         00000004  00800100  0000089c  00000930  2**0
                  CONTENTS, ALLOC, LOAD, DATA
  1 .text         0000089c  00000000  00000000  00000094  2**1
                  CONTENTS, ALLOC, LOAD, READONLY, CODE
  2 .bss          00000021  00800104  00800104  00000934  2**0
                  ALLOC
  3 .comment      00000030  00000000  00000000  00000934  2**0
                  CONTENTS, READONLY
  4 .note.gnu.avr.deviceinfo 00000040  00000000  00000000  00000964  2**2
                  CONTENTS, READONLY
  5 .debug_aranges 000000e0  00000000  00000000  000009a4  2**0
                  CONTENTS, READONLY, DEBUGGING
  6 .debug_info   00000db7  00000000  00000000  00000a84  2**0
                  CONTENTS, READONLY, DEBUGGING
  7 .debug_abbrev 0000091a  00000000  00000000  0000183b  2**0
                  CONTENTS, READONLY, DEBUGGING
  8 .debug_line   00000a72  00000000  00000000  00002155  2**0
                  CONTENTS, READONLY, DEBUGGING
  9 .debug_frame  0000021c  00000000  00000000  00002bc8  2**2
                  CONTENTS, READONLY, DEBUGGING
 10 .debug_str    00000582  00000000  00000000  00002de4  2**0
                  CONTENTS, READONLY, DEBUGGING
 11 .debug_loc    00000502  00000000  00000000  00003366  2**0
                  CONTENTS, READONLY, DEBUGGING
 12 .debug_ranges 000000b8  00000000  00000000  00003868  2**0
                  CONTENTS, READONLY, DEBUGGING

Disassembly of section .text:

00000000 <__vectors>:
   0:	0c 94 34 00 	jmp	0x68	; 0x68 <__ctors_end>
   4:	0c 94 51 00 	jmp	0xa2	; 0xa2 <__bad_interrupt>
   8:	0c 94 51 00 	jmp	0xa2	; 0xa2 <__bad_interrupt>
   c:	0c 94 51 00 	jmp	0xa2	; 0xa2 <__bad_interrupt>
  10:	0c 94 d1 03 	jmp	0x7a2	; 0x7a2 <__vector_4>
  14:	0c 94 51 00 	jmp	0xa2	; 0xa2 <__bad_interrupt>
  18:	0c 94 51 00 	jmp	0xa2	; 0xa2 <__bad_interrupt>
  1c:	0c 94 51 00 	jmp	0xa2	; 0xa2 <__bad_interrupt>
  20:	0c 94 51 00 	jmp	0xa2	; 0xa2 <__bad_interrupt>
  24:	0c 94 51 00 	jmp	0xa2	; 0xa2 <__bad_interrupt>
  28:	0c 94 51 00 	jmp	0xa2	; 0xa2 <__bad_interrupt>
  2c:	0c 94 51 00 	jmp	0xa2	; 0xa2 <__bad_interrupt>
  30:	0c 94 51 00 	jmp	0xa2	; 0xa2 <__bad_interrupt>
  34:	0c 94 51 00 	jmp	0xa2	; 0xa2 <__bad_interrupt>
  38:	0c 94 51 00 	jmp	0xa2	; 0xa2 <__bad_interrupt>
  3c:	0c 94 51 00 	jmp	0xa2	; 0xa2 <__bad_interrupt>
  40:	0c 94 51 00 	jmp	0xa2	; 0xa2 <__bad_interrupt>
  44:	0c 94 51 00 	jmp	0xa2	; 0xa2 <__bad_interrupt>
  48:	0c 94 01 03 	jmp	0x602	; 0x602 <__vector_18>
  4c:	0c 94 51 00 	jmp	0xa2	; 0xa2 <__bad_interrupt>
  50:	0c 94 51 00 	jmp	0xa2	; 0xa2 <__bad_interrupt>
  54:	0c 94 2b 02 	jmp	0x456	; 0x456 <__vector_21>
  58:	0c 94 51 00 	jmp	0xa2	; 0xa2 <__bad_interrupt>
  5c:	0c 94 51 00 	jmp	0xa2	; 0xa2 <__bad_interrupt>
  60:	0c 94 51 00 	jmp	0xa2	; 0xa2 <__bad_interrupt>
  64:	0c 94 51 00 	jmp	0xa2	; 0xa2 <__bad_interrupt>

00000068 <__ctors_end>:
  68:	11 24       	eor	r1, r1
  6a:	1f be       	out	0x3f, r1	; 63
  6c:	cf ef       	ldi	r28, 0xFF	; 255
  6e:	d8 e0       	ldi	r29, 0x08	; 8
  70:	de bf       	out	0x3e, r29	; 62
  72:	cd bf       	out	0x3d, r28	; 61

00000074 <__do_copy_data>:
  74:	11 e0       	ldi	r17, 0x01	; 1
  76:	a0 e0       	ldi	r26, 0x00	; 0
  78:	b1 e0       	ldi	r27, 0x01	; 1
  7a:	ec e9       	ldi	r30, 0x9C	; 156
  7c:	f8 e0       	ldi	r31, 0x08	; 8
  7e:	02 c0       	rjmp	.+4      	; 0x84 <__do_copy_data+0x10>
  80:	05 90       	lpm	r0, Z+
  82:	0d 92       	st	X+, r0
  84:	a4 30       	cpi	r26, 0x04	; 4
  86:	b1 07       	cpc	r27, r17
  88:	d9 f7       	brne	.-10     	; 0x80 <__do_copy_data+0xc>

0000008a <__do_clear_bss>:
  8a:	21 e0       	ldi	r18, 0x01	; 1
  8c:	a4 e0       	ldi	r26, 0x04	; 4
  8e:	b1 e0       	ldi	r27, 0x01	; 1
  90:	01 c0       	rjmp	.+2      	; 0x94 <.do_clear_bss_start>

00000092 <.do_clear_bss_loop>:
  92:	1d 92       	st	X+, r1

00000094 <.do_clear_bss_start>:
  94:	a5 32       	cpi	r26, 0x25	; 37
  96:	b2 07       	cpc	r27, r18
  98:	e1 f7       	brne	.-8      	; 0x92 <.do_clear_bss_loop>
  9a:	0e 94 18 02 	call	0x430	; 0x430 <main>
  9e:	0c 94 4c 04 	jmp	0x898	; 0x898 <_exit>

000000a2 <__bad_interrupt>:
  a2:	0c 94 00 00 	jmp	0	; 0x0 <__vectors>

000000a6 <initADC>:
 *  Author: bsmor
 */ 
#include <avr/io.h>

void initADC(){
	ADMUX = 0;
  a6:	ec e7       	ldi	r30, 0x7C	; 124
  a8:	f0 e0       	ldi	r31, 0x00	; 0
  aa:	10 82       	st	Z, r1
	ADMUX	|= (1<<REFS0);  // 5V as reference
  ac:	80 81       	ld	r24, Z
  ae:	80 64       	ori	r24, 0x40	; 64
  b0:	80 83       	st	Z, r24

	ADMUX	|= (1 << ADLAR); // Left justification
  b2:	80 81       	ld	r24, Z
  b4:	80 62       	ori	r24, 0x20	; 32
  b6:	80 83       	st	Z, r24
	
	ADMUX	|= (1 << MUX1) | (1<< MUX0); //Select ADC3 to have a start value
  b8:	80 81       	ld	r24, Z
  ba:	83 60       	ori	r24, 0x03	; 3
  bc:	80 83       	st	Z, r24
	
	ADCSRA	= 0;
  be:	ea e7       	ldi	r30, 0x7A	; 122
  c0:	f0 e0       	ldi	r31, 0x00	; 0
  c2:	10 82       	st	Z, r1
	ADCSRA	|= (1 << ADPS1) | (1 << ADPS0); // Sampling frequency = 125kHz "sampling = muestreo"
  c4:	80 81       	ld	r24, Z
  c6:	83 60       	ori	r24, 0x03	; 3
  c8:	80 83       	st	Z, r24
	ADCSRA	|= (1 << ADIE); // Enable interruption
  ca:	80 81       	ld	r24, Z
  cc:	88 60       	ori	r24, 0x08	; 8
  ce:	80 83       	st	Z, r24
	ADCSRA	|= (1 << ADEN); // Enable ADC
  d0:	80 81       	ld	r24, Z
  d2:	80 68       	ori	r24, 0x80	; 128
  d4:	80 83       	st	Z, r24
	
	ADCSRA	|= (1<< ADSC); // Start conversion
  d6:	80 81       	ld	r24, Z
  d8:	80 64       	ori	r24, 0x40	; 64
  da:	80 83       	st	Z, r24
  dc:	08 95       	ret

000000de <initPWM1>:
 *  Author: bsmor
 */ 
#include <avr/io.h>

void initPWM1(){
	DDRB |= (1 << DDB1); // PB1 as output (OC1A)
  de:	84 b1       	in	r24, 0x04	; 4
  e0:	82 60       	ori	r24, 0x02	; 2
  e2:	84 b9       	out	0x04, r24	; 4
	DDRB |= (1 << DDB2); // PB2 as output (OC1B)
  e4:	84 b1       	in	r24, 0x04	; 4
  e6:	84 60       	ori	r24, 0x04	; 4
  e8:	84 b9       	out	0x04, r24	; 4
	TCCR1A = 0;
  ea:	e0 e8       	ldi	r30, 0x80	; 128
  ec:	f0 e0       	ldi	r31, 0x00	; 0
  ee:	10 82       	st	Z, r1
	TCCR1A |= (1 << COM1A1); // Set as non inverted OC1A
  f0:	80 81       	ld	r24, Z
  f2:	80 68       	ori	r24, 0x80	; 128
  f4:	80 83       	st	Z, r24
	TCCR1A |= (1 << COM1B1); // Set as non inverted OC1B
  f6:	80 81       	ld	r24, Z
  f8:	80 62       	ori	r24, 0x20	; 32
  fa:	80 83       	st	Z, r24
	TCCR1A |= (1 << WGM10); // Set mode 5 => Fast PWM and top = 0xFF
  fc:	80 81       	ld	r24, Z
  fe:	81 60       	ori	r24, 0x01	; 1
 100:	80 83       	st	Z, r24
	
	TCCR1B = 0;
 102:	e1 e8       	ldi	r30, 0x81	; 129
 104:	f0 e0       	ldi	r31, 0x00	; 0
 106:	10 82       	st	Z, r1
	TCCR1B |= (1 << WGM12);
 108:	80 81       	ld	r24, Z
 10a:	88 60       	ori	r24, 0x08	; 8
 10c:	80 83       	st	Z, r24
	TCCR1B |= (1 << CS11) | (1 << CS10); // Prescaler 64
 10e:	80 81       	ld	r24, Z
 110:	83 60       	ori	r24, 0x03	; 3
 112:	80 83       	st	Z, r24
 114:	08 95       	ret

00000116 <initPWM0>:
}

void initPWM0(){
	DDRD |= (1 << DDD6); // PD6 as output (OC0A)
 116:	8a b1       	in	r24, 0x0a	; 10
 118:	80 64       	ori	r24, 0x40	; 64
 11a:	8a b9       	out	0x0a, r24	; 10
	DDRD |= (1 << DDD5); // PD5 as output (OC0B)
 11c:	8a b1       	in	r24, 0x0a	; 10
 11e:	80 62       	ori	r24, 0x20	; 32
 120:	8a b9       	out	0x0a, r24	; 10
	TCCR0A = 0;
 122:	14 bc       	out	0x24, r1	; 36
	TCCR0A |= (1 << COM0A1); // Set as non inverted OC0A
 124:	84 b5       	in	r24, 0x24	; 36
 126:	80 68       	ori	r24, 0x80	; 128
 128:	84 bd       	out	0x24, r24	; 36
	TCCR0A |= (1 << COM0B1); // Set as non inverted OC0B
 12a:	84 b5       	in	r24, 0x24	; 36
 12c:	80 62       	ori	r24, 0x20	; 32
 12e:	84 bd       	out	0x24, r24	; 36
	TCCR0A |= (1 << WGM01) | (1 << WGM00); // Set mode 3 => Fast PWM and top = 0xFF
 130:	84 b5       	in	r24, 0x24	; 36
 132:	83 60       	ori	r24, 0x03	; 3
 134:	84 bd       	out	0x24, r24	; 36
	
	TCCR0B = 0;
 136:	15 bc       	out	0x25, r1	; 37
	TCCR0B |= (1 << CS01) | (1 << CS00); // Prescaler 64
 138:	85 b5       	in	r24, 0x25	; 37
 13a:	83 60       	ori	r24, 0x03	; 3
 13c:	85 bd       	out	0x25, r24	; 37
 13e:	08 95       	ret

00000140 <initUART>:
 */ 
#include <avr/io.h>

void initUART(){
	//Step1 : configurate pin PD0 (rx) and PD1 (tx)
	DDRD |= (1 << DDD1);
 140:	8a b1       	in	r24, 0x0a	; 10
 142:	82 60       	ori	r24, 0x02	; 2
 144:	8a b9       	out	0x0a, r24	; 10
	DDRD &= ~(1 << DDD0);
 146:	8a b1       	in	r24, 0x0a	; 10
 148:	8e 7f       	andi	r24, 0xFE	; 254
 14a:	8a b9       	out	0x0a, r24	; 10
	//Step 2: UCSR0A
	UCSR0A |= (1 << U2X0); //double speed
 14c:	e0 ec       	ldi	r30, 0xC0	; 192
 14e:	f0 e0       	ldi	r31, 0x00	; 0
 150:	80 81       	ld	r24, Z
 152:	82 60       	ori	r24, 0x02	; 2
 154:	80 83       	st	Z, r24
	//Step 3: UCSR0B: enable interrupts, enable recibir, enable transmition
	UCSR0B |= (1 << RXCIE0) | (1 << RXEN0) | (1 << TXEN0);
 156:	e1 ec       	ldi	r30, 0xC1	; 193
 158:	f0 e0       	ldi	r31, 0x00	; 0
 15a:	80 81       	ld	r24, Z
 15c:	88 69       	ori	r24, 0x98	; 152
 15e:	80 83       	st	Z, r24
	//Step 4 : UCSR0C
	UCSR0C = (1 << UCSZ01) | (1 << UCSZ00);
 160:	86 e0       	ldi	r24, 0x06	; 6
 162:	80 93 c2 00 	sts	0x00C2, r24	; 0x8000c2 <__TEXT_REGION_LENGTH__+0x7f80c2>
	//Step 5: UBRR0 0 103 => 9600 16kHz
	UBRR0 = 12;
 166:	8c e0       	ldi	r24, 0x0C	; 12
 168:	90 e0       	ldi	r25, 0x00	; 0
 16a:	90 93 c5 00 	sts	0x00C5, r25	; 0x8000c5 <__TEXT_REGION_LENGTH__+0x7f80c5>
 16e:	80 93 c4 00 	sts	0x00C4, r24	; 0x8000c4 <__TEXT_REGION_LENGTH__+0x7f80c4>
 172:	08 95       	ret

00000174 <setup>:
	}
}
//************************************************************************************
// NON-INterrupt subroutines
void setup(){
	cli();
 174:	f8 94       	cli
	CLKPR = (1 << CLKPCE);
 176:	e1 e6       	ldi	r30, 0x61	; 97
 178:	f0 e0       	ldi	r31, 0x00	; 0
 17a:	80 e8       	ldi	r24, 0x80	; 128
 17c:	80 83       	st	Z, r24
	CLKPR = (1 << CLKPS2); // Prescaler 16 => Configurate to 1MHz
 17e:	84 e0       	ldi	r24, 0x04	; 4
 180:	80 83       	st	Z, r24
	
	//Configuración de las leds para mostrar modo
	DDRB |= (1 << PORTB3) | (1 << PORTB4);
 182:	84 b1       	in	r24, 0x04	; 4
 184:	88 61       	ori	r24, 0x18	; 24
 186:	84 b9       	out	0x04, r24	; 4
	PORTB &= ~((1 << PORTB3) | (1 << PORTB4));
 188:	85 b1       	in	r24, 0x05	; 5
 18a:	87 7e       	andi	r24, 0xE7	; 231
 18c:	85 b9       	out	0x05, r24	; 5
	
	// Configuración de botones en PORTC
	DDRC &= ~((1 << PORTC0) | (1 << PORTC1));  // PC0 y PC1 como entradas
 18e:	87 b1       	in	r24, 0x07	; 7
 190:	8c 7f       	andi	r24, 0xFC	; 252
 192:	87 b9       	out	0x07, r24	; 7
	PORTC |= (1 << PORTC0) | (1 << PORTC1);    // Activar pull-ups
 194:	88 b1       	in	r24, 0x08	; 8
 196:	83 60       	ori	r24, 0x03	; 3
 198:	88 b9       	out	0x08, r24	; 8
	
	// Habilitar interrupciones en PORTC (PC0 y PC1)
	PCICR |= (1 << PCIE1);                         // Habilita grupo de interrupciones de PORTC
 19a:	e8 e6       	ldi	r30, 0x68	; 104
 19c:	f0 e0       	ldi	r31, 0x00	; 0
 19e:	80 81       	ld	r24, Z
 1a0:	82 60       	ori	r24, 0x02	; 2
 1a2:	80 83       	st	Z, r24
	PCMSK1 |= (1 << PCINT8) | (1 << PCINT9);       // Habilita interrupciones en PC0 y PC1
 1a4:	ec e6       	ldi	r30, 0x6C	; 108
 1a6:	f0 e0       	ldi	r31, 0x00	; 0
 1a8:	80 81       	ld	r24, Z
 1aa:	83 60       	ori	r24, 0x03	; 3
 1ac:	80 83       	st	Z, r24

	
	initPWM0();
 1ae:	0e 94 8b 00 	call	0x116	; 0x116 <initPWM0>
	initPWM1();
 1b2:	0e 94 6f 00 	call	0xde	; 0xde <initPWM1>
	initADC();
 1b6:	0e 94 53 00 	call	0xa6	; 0xa6 <initADC>
	initUART();
 1ba:	0e 94 a0 00 	call	0x140	; 0x140 <initUART>
	
	sei();
 1be:	78 94       	sei
 1c0:	08 95       	ret

000001c2 <writeEPROM>:
}


void writeEPROM(uint8_t dato, uint8_t direccion){
	// Esperar a que termine la escritura anterior
	while (EECR & (1 << EEPE));
 1c2:	f9 99       	sbic	0x1f, 1	; 31
 1c4:	fe cf       	rjmp	.-4      	; 0x1c2 <writeEPROM>
	// Asignar dirección de escritura
	EEAR = direccion;
 1c6:	70 e0       	ldi	r23, 0x00	; 0
 1c8:	72 bd       	out	0x22, r23	; 34
 1ca:	61 bd       	out	0x21, r22	; 33
	// Asignar dato a "escribir"
	EEDR = dato;
 1cc:	80 bd       	out	0x20, r24	; 32
	// Setear en 1 el "master write enable"
	EECR |= (1 << EEMPE);
 1ce:	8f b3       	in	r24, 0x1f	; 31
 1d0:	84 60       	ori	r24, 0x04	; 4
 1d2:	8f bb       	out	0x1f, r24	; 31
	// Empezar a escribir
	EECR |= (1 << EEPE);
 1d4:	8f b3       	in	r24, 0x1f	; 31
 1d6:	82 60       	ori	r24, 0x02	; 2
 1d8:	8f bb       	out	0x1f, r24	; 31
 1da:	08 95       	ret

000001dc <readEPROM>:
}

uint8_t readEPROM(uint8_t direccion){
	// Esperar a que termine la escritura anterior
	while (EECR & (1 << EEPE));
 1dc:	f9 99       	sbic	0x1f, 1	; 31
 1de:	fe cf       	rjmp	.-4      	; 0x1dc <readEPROM>
	// Asignar dirección de escritura
	EEAR = direccion;
 1e0:	90 e0       	ldi	r25, 0x00	; 0
 1e2:	92 bd       	out	0x22, r25	; 34
 1e4:	81 bd       	out	0x21, r24	; 33
	// Empezar a leer
	EECR |= (1 << EERE);
 1e6:	8f b3       	in	r24, 0x1f	; 31
 1e8:	81 60       	ori	r24, 0x01	; 1
 1ea:	8f bb       	out	0x1f, r24	; 31
	return EEDR;
 1ec:	80 b5       	in	r24, 0x20	; 32
}
 1ee:	08 95       	ret

000001f0 <enviar_num_UART>:


void enviar_num_UART(uint8_t num) {
 1f0:	cf 93       	push	r28
 1f2:	df 93       	push	r29
 1f4:	00 d0       	rcall	.+0      	; 0x1f6 <enviar_num_UART+0x6>
 1f6:	1f 92       	push	r1
 1f8:	cd b7       	in	r28, 0x3d	; 61
 1fa:	de b7       	in	r29, 0x3e	; 62
	// Caso es pecial con el número 0 ya que no entra en la lógica 
	if (num == 0) {
 1fc:	81 11       	cpse	r24, r1
 1fe:	21 c0       	rjmp	.+66     	; 0x242 <enviar_num_UART+0x52>
		while (!(UCSR0A & (1 << UDRE0))); // Espera a que el registro de datos este vacío
 200:	80 91 c0 00 	lds	r24, 0x00C0	; 0x8000c0 <__TEXT_REGION_LENGTH__+0x7f80c0>
 204:	85 ff       	sbrs	r24, 5
 206:	fc cf       	rjmp	.-8      	; 0x200 <enviar_num_UART+0x10>
		UDR0 = '0';
 208:	80 e3       	ldi	r24, 0x30	; 48
 20a:	80 93 c6 00 	sts	0x00C6, r24	; 0x8000c6 <__TEXT_REGION_LENGTH__+0x7f80c6>
 20e:	30 c0       	rjmp	.+96     	; 0x270 <enviar_num_UART+0x80>

	char digits[3]; // Hasta 3 dígitos para 0-180
	uint8_t i = 0;
	//Convierte de número a ascii para poder envíarlo correctamente 
	while (num > 0) {
		digits[i++] = (num % 10) + '0'; // % obtiene el último dígito del valor para poder ir guardando en el arreglo díjito 
 210:	e1 e0       	ldi	r30, 0x01	; 1
 212:	f0 e0       	ldi	r31, 0x00	; 0
 214:	ec 0f       	add	r30, r28
 216:	fd 1f       	adc	r31, r29
 218:	e9 0f       	add	r30, r25
 21a:	f1 1d       	adc	r31, r1
 21c:	2d ec       	ldi	r18, 0xCD	; 205
 21e:	82 9f       	mul	r24, r18
 220:	21 2d       	mov	r18, r1
 222:	11 24       	eor	r1, r1
 224:	26 95       	lsr	r18
 226:	26 95       	lsr	r18
 228:	26 95       	lsr	r18
 22a:	42 2f       	mov	r20, r18
 22c:	44 0f       	add	r20, r20
 22e:	34 2f       	mov	r19, r20
 230:	33 0f       	add	r19, r19
 232:	33 0f       	add	r19, r19
 234:	34 0f       	add	r19, r20
 236:	83 1b       	sub	r24, r19
 238:	80 5d       	subi	r24, 0xD0	; 208
 23a:	80 83       	st	Z, r24
		num /= 10;
 23c:	82 2f       	mov	r24, r18

	char digits[3]; // Hasta 3 dígitos para 0-180
	uint8_t i = 0;
	//Convierte de número a ascii para poder envíarlo correctamente 
	while (num > 0) {
		digits[i++] = (num % 10) + '0'; // % obtiene el último dígito del valor para poder ir guardando en el arreglo díjito 
 23e:	9f 5f       	subi	r25, 0xFF	; 255
 240:	01 c0       	rjmp	.+2      	; 0x244 <enviar_num_UART+0x54>
 242:	90 e0       	ldi	r25, 0x00	; 0
	}

	char digits[3]; // Hasta 3 dígitos para 0-180
	uint8_t i = 0;
	//Convierte de número a ascii para poder envíarlo correctamente 
	while (num > 0) {
 244:	81 11       	cpse	r24, r1
 246:	e4 cf       	rjmp	.-56     	; 0x210 <enviar_num_UART+0x20>
		digits[i++] = (num % 10) + '0'; // % obtiene el último dígito del valor para poder ir guardando en el arreglo díjito 
		num /= 10;
	}

	for (int8_t j = i - 1; j >= 0; j--) { // Recorre los dígitos en orden inverso para enviarlos correctamente.
 248:	91 50       	subi	r25, 0x01	; 1
 24a:	10 c0       	rjmp	.+32     	; 0x26c <enviar_num_UART+0x7c>
		while (!(UCSR0A & (1 << UDRE0)));
 24c:	80 91 c0 00 	lds	r24, 0x00C0	; 0x8000c0 <__TEXT_REGION_LENGTH__+0x7f80c0>
 250:	85 ff       	sbrs	r24, 5
 252:	fc cf       	rjmp	.-8      	; 0x24c <enviar_num_UART+0x5c>
		UDR0 = digits[j];
 254:	e1 e0       	ldi	r30, 0x01	; 1
 256:	f0 e0       	ldi	r31, 0x00	; 0
 258:	ec 0f       	add	r30, r28
 25a:	fd 1f       	adc	r31, r29
 25c:	e9 0f       	add	r30, r25
 25e:	f1 1d       	adc	r31, r1
 260:	97 fd       	sbrc	r25, 7
 262:	fa 95       	dec	r31
 264:	80 81       	ld	r24, Z
 266:	80 93 c6 00 	sts	0x00C6, r24	; 0x8000c6 <__TEXT_REGION_LENGTH__+0x7f80c6>
	while (num > 0) {
		digits[i++] = (num % 10) + '0'; // % obtiene el último dígito del valor para poder ir guardando en el arreglo díjito 
		num /= 10;
	}

	for (int8_t j = i - 1; j >= 0; j--) { // Recorre los dígitos en orden inverso para enviarlos correctamente.
 26a:	91 50       	subi	r25, 0x01	; 1
 26c:	99 23       	and	r25, r25
 26e:	74 f7       	brge	.-36     	; 0x24c <enviar_num_UART+0x5c>
		while (!(UCSR0A & (1 << UDRE0)));
		UDR0 = digits[j];
	}
}
 270:	0f 90       	pop	r0
 272:	0f 90       	pop	r0
 274:	0f 90       	pop	r0
 276:	df 91       	pop	r29
 278:	cf 91       	pop	r28
 27a:	08 95       	ret

0000027c <enviar_char_UART>:


void enviar_char_UART(char c) {
	while (!(UCSR0A & (1 << UDRE0)));
 27c:	90 91 c0 00 	lds	r25, 0x00C0	; 0x8000c0 <__TEXT_REGION_LENGTH__+0x7f80c0>
 280:	95 ff       	sbrs	r25, 5
 282:	fc cf       	rjmp	.-8      	; 0x27c <enviar_char_UART>
	UDR0 = c; // Escribir un caracter para separar ángulos
 284:	80 93 c6 00 	sts	0x00C6, r24	; 0x8000c6 <__TEXT_REGION_LENGTH__+0x7f80c6>
 288:	08 95       	ret

0000028a <manual>:
}


void manual(){
	//Mostrar el modo actual 
	PORTB |= (1 << PORTB3);
 28a:	85 b1       	in	r24, 0x05	; 5
 28c:	88 60       	ori	r24, 0x08	; 8
 28e:	85 b9       	out	0x05, r24	; 5
	PORTB &= ~(1 << PORTB4);
 290:	85 b1       	in	r24, 0x05	; 5
 292:	8f 7e       	andi	r24, 0xEF	; 239
 294:	85 b9       	out	0x05, r24	; 5
	
	ADCSRA |= (1 << ADSC);
 296:	ea e7       	ldi	r30, 0x7A	; 122
 298:	f0 e0       	ldi	r31, 0x00	; 0
 29a:	80 81       	ld	r24, Z
 29c:	80 64       	ori	r24, 0x40	; 64
 29e:	80 83       	st	Z, r24
	
	//Esto se ejecuta cuando entra por primera vez al modo manual para reiniciar la dirección
	if (entrada == 0){
 2a0:	80 91 00 01 	lds	r24, 0x0100	; 0x800100 <__DATA_REGION_ORIGIN__>
 2a4:	81 11       	cpse	r24, r1
 2a6:	02 c0       	rjmp	.+4      	; 0x2ac <manual+0x22>
		save_temporal = 0x00; // Reinicia la dirección
 2a8:	10 92 0c 01 	sts	0x010C, r1	; 0x80010c <save_temporal>
	}
	if (entrada == 0 && action_button == 1){ // Ejecutar solo si se entró por primera vez y se activó el botón
 2ac:	81 11       	cpse	r24, r1
 2ae:	06 c0       	rjmp	.+12     	; 0x2bc <manual+0x32>
 2b0:	80 91 0f 01 	lds	r24, 0x010F	; 0x80010f <action_button>
 2b4:	81 30       	cpi	r24, 0x01	; 1
 2b6:	11 f4       	brne	.+4      	; 0x2bc <manual+0x32>
		cant_posiciones = 0; //Reinicia variable para saber cuantas posiciones lleva guardadas
 2b8:	10 92 0e 01 	sts	0x010E, r1	; 0x80010e <cant_posiciones>
	}

	if (action_button == 1 && cant_posiciones < NUM_MAX_PASOS) { // Si se activa el botón y las posiciones son menores a las indicadas, seguir guardando
 2bc:	80 91 0f 01 	lds	r24, 0x010F	; 0x80010f <action_button>
 2c0:	81 30       	cpi	r24, 0x01	; 1
 2c2:	09 f0       	breq	.+2      	; 0x2c6 <manual+0x3c>
 2c4:	45 c0       	rjmp	.+138    	; 0x350 <manual+0xc6>
 2c6:	80 91 0e 01 	lds	r24, 0x010E	; 0x80010e <cant_posiciones>
 2ca:	85 30       	cpi	r24, 0x05	; 5
 2cc:	08 f0       	brcs	.+2      	; 0x2d0 <manual+0x46>
 2ce:	40 c0       	rjmp	.+128    	; 0x350 <manual+0xc6>
		// Parpadeo de leds
		PORTB &= ~(1 << PORTB3);
 2d0:	85 b1       	in	r24, 0x05	; 5
 2d2:	87 7f       	andi	r24, 0xF7	; 247
 2d4:	85 b9       	out	0x05, r24	; 5
	#else
		//round up by default
		__ticks_dc = (uint32_t)(ceil(fabs(__tmp)));
	#endif

	__builtin_avr_delay_cycles(__ticks_dc);
 2d6:	8f ed       	ldi	r24, 0xDF	; 223
 2d8:	9e e2       	ldi	r25, 0x2E	; 46
 2da:	01 97       	sbiw	r24, 0x01	; 1
 2dc:	f1 f7       	brne	.-4      	; 0x2da <manual+0x50>
 2de:	00 c0       	rjmp	.+0      	; 0x2e0 <manual+0x56>
 2e0:	00 00       	nop
		_delay_ms(3);
		PORTB |= (1 << PORTB3);
 2e2:	85 b1       	in	r24, 0x05	; 5
 2e4:	88 60       	ori	r24, 0x08	; 8
 2e6:	85 b9       	out	0x05, r24	; 5
		
		//Guardar en la EPROM el valor del OCR, aumenta la dirección para guardar la siguiente posición
		writeEPROM(OCR1A, save_temporal++);
 2e8:	60 91 0c 01 	lds	r22, 0x010C	; 0x80010c <save_temporal>
 2ec:	81 e0       	ldi	r24, 0x01	; 1
 2ee:	86 0f       	add	r24, r22
 2f0:	80 93 0c 01 	sts	0x010C, r24	; 0x80010c <save_temporal>
 2f4:	80 91 88 00 	lds	r24, 0x0088	; 0x800088 <__TEXT_REGION_LENGTH__+0x7f8088>
 2f8:	90 91 89 00 	lds	r25, 0x0089	; 0x800089 <__TEXT_REGION_LENGTH__+0x7f8089>
 2fc:	0e 94 e1 00 	call	0x1c2	; 0x1c2 <writeEPROM>
		writeEPROM(OCR1B, save_temporal++);
 300:	60 91 0c 01 	lds	r22, 0x010C	; 0x80010c <save_temporal>
 304:	81 e0       	ldi	r24, 0x01	; 1
 306:	86 0f       	add	r24, r22
 308:	80 93 0c 01 	sts	0x010C, r24	; 0x80010c <save_temporal>
 30c:	80 91 8a 00 	lds	r24, 0x008A	; 0x80008a <__TEXT_REGION_LENGTH__+0x7f808a>
 310:	90 91 8b 00 	lds	r25, 0x008B	; 0x80008b <__TEXT_REGION_LENGTH__+0x7f808b>
 314:	0e 94 e1 00 	call	0x1c2	; 0x1c2 <writeEPROM>
		writeEPROM(OCR0A, save_temporal++);
 318:	60 91 0c 01 	lds	r22, 0x010C	; 0x80010c <save_temporal>
 31c:	81 e0       	ldi	r24, 0x01	; 1
 31e:	86 0f       	add	r24, r22
 320:	80 93 0c 01 	sts	0x010C, r24	; 0x80010c <save_temporal>
 324:	87 b5       	in	r24, 0x27	; 39
 326:	0e 94 e1 00 	call	0x1c2	; 0x1c2 <writeEPROM>
		writeEPROM(OCR0B, save_temporal++);
 32a:	60 91 0c 01 	lds	r22, 0x010C	; 0x80010c <save_temporal>
 32e:	81 e0       	ldi	r24, 0x01	; 1
 330:	86 0f       	add	r24, r22
 332:	80 93 0c 01 	sts	0x010C, r24	; 0x80010c <save_temporal>
 336:	88 b5       	in	r24, 0x28	; 40
 338:	0e 94 e1 00 	call	0x1c2	; 0x1c2 <writeEPROM>
		entrada = 1; //Se coloca en 1 para que no reinicie a la dirección 0
 33c:	81 e0       	ldi	r24, 0x01	; 1
 33e:	80 93 00 01 	sts	0x0100, r24	; 0x800100 <__DATA_REGION_ORIGIN__>
		action_button = 0; // Se apaga el botón de acción
 342:	10 92 0f 01 	sts	0x010F, r1	; 0x80010f <action_button>
		cant_posiciones++; // Aumento posiciones
 346:	80 91 0e 01 	lds	r24, 0x010E	; 0x80010e <cant_posiciones>
 34a:	8f 5f       	subi	r24, 0xFF	; 255
 34c:	80 93 0e 01 	sts	0x010E, r24	; 0x80010e <cant_posiciones>
 350:	08 95       	ret

00000352 <reproducir_data>:
	}
}

void reproducir_data() {
	//Mostrar en los leds el modo actual
	PORTB |= (1 << PORTB4);
 352:	85 b1       	in	r24, 0x05	; 5
 354:	80 61       	ori	r24, 0x10	; 16
 356:	85 b9       	out	0x05, r24	; 5
	PORTB &= ~(1 << PORTB3);
 358:	85 b1       	in	r24, 0x05	; 5
 35a:	87 7f       	andi	r24, 0xF7	; 247
 35c:	85 b9       	out	0x05, r24	; 5
	entrada = 0;
 35e:	10 92 00 01 	sts	0x0100, r1	; 0x800100 <__DATA_REGION_ORIGIN__>

	
	if (!modo_repro_iniciado && action_button == 1) {
 362:	80 91 09 01 	lds	r24, 0x0109	; 0x800109 <modo_repro_iniciado>
 366:	81 11       	cpse	r24, r1
 368:	0c c0       	rjmp	.+24     	; 0x382 <reproducir_data+0x30>
 36a:	80 91 0f 01 	lds	r24, 0x010F	; 0x80010f <action_button>
 36e:	81 30       	cpi	r24, 0x01	; 1
 370:	41 f4       	brne	.+16     	; 0x382 <reproducir_data+0x30>
		//Reinicio valores
		addr = 0;
 372:	10 92 0b 01 	sts	0x010B, r1	; 0x80010b <addr>
		pasos = 0; 
 376:	10 92 0a 01 	sts	0x010A, r1	; 0x80010a <pasos>
		modo_repro_iniciado = 1;
 37a:	80 93 09 01 	sts	0x0109, r24	; 0x800109 <modo_repro_iniciado>
		action_button = 0;
 37e:	10 92 0f 01 	sts	0x010F, r1	; 0x80010f <action_button>
	}

	// Ejecutar solo si se inició el modo de reproducción
	if (modo_repro_iniciado == 1) {
 382:	80 91 09 01 	lds	r24, 0x0109	; 0x800109 <modo_repro_iniciado>
 386:	81 30       	cpi	r24, 0x01	; 1
 388:	09 f0       	breq	.+2      	; 0x38c <reproducir_data+0x3a>
 38a:	43 c0       	rjmp	.+134    	; 0x412 <__EEPROM_REGION_LENGTH__+0x12>
		if (pasos < cant_posiciones) { //Compara para reproducir unicamente la cantidad de posiciones guardadas
 38c:	90 91 0a 01 	lds	r25, 0x010A	; 0x80010a <pasos>
 390:	80 91 0e 01 	lds	r24, 0x010E	; 0x80010e <cant_posiciones>
 394:	98 17       	cp	r25, r24
 396:	d8 f5       	brcc	.+118    	; 0x40e <__EEPROM_REGION_LENGTH__+0xe>
			OCR1A = readEPROM(addr++);
 398:	80 91 0b 01 	lds	r24, 0x010B	; 0x80010b <addr>
 39c:	91 e0       	ldi	r25, 0x01	; 1
 39e:	98 0f       	add	r25, r24
 3a0:	90 93 0b 01 	sts	0x010B, r25	; 0x80010b <addr>
 3a4:	0e 94 ee 00 	call	0x1dc	; 0x1dc <readEPROM>
 3a8:	90 e0       	ldi	r25, 0x00	; 0
 3aa:	90 93 89 00 	sts	0x0089, r25	; 0x800089 <__TEXT_REGION_LENGTH__+0x7f8089>
 3ae:	80 93 88 00 	sts	0x0088, r24	; 0x800088 <__TEXT_REGION_LENGTH__+0x7f8088>
			OCR1B = readEPROM(addr++);
 3b2:	80 91 0b 01 	lds	r24, 0x010B	; 0x80010b <addr>
 3b6:	91 e0       	ldi	r25, 0x01	; 1
 3b8:	98 0f       	add	r25, r24
 3ba:	90 93 0b 01 	sts	0x010B, r25	; 0x80010b <addr>
 3be:	0e 94 ee 00 	call	0x1dc	; 0x1dc <readEPROM>
 3c2:	90 e0       	ldi	r25, 0x00	; 0
 3c4:	90 93 8b 00 	sts	0x008B, r25	; 0x80008b <__TEXT_REGION_LENGTH__+0x7f808b>
 3c8:	80 93 8a 00 	sts	0x008A, r24	; 0x80008a <__TEXT_REGION_LENGTH__+0x7f808a>
			OCR0A = readEPROM(addr++);
 3cc:	80 91 0b 01 	lds	r24, 0x010B	; 0x80010b <addr>
 3d0:	91 e0       	ldi	r25, 0x01	; 1
 3d2:	98 0f       	add	r25, r24
 3d4:	90 93 0b 01 	sts	0x010B, r25	; 0x80010b <addr>
 3d8:	0e 94 ee 00 	call	0x1dc	; 0x1dc <readEPROM>
 3dc:	87 bd       	out	0x27, r24	; 39
			OCR0B = readEPROM(addr++);
 3de:	80 91 0b 01 	lds	r24, 0x010B	; 0x80010b <addr>
 3e2:	91 e0       	ldi	r25, 0x01	; 1
 3e4:	98 0f       	add	r25, r24
 3e6:	90 93 0b 01 	sts	0x010B, r25	; 0x80010b <addr>
 3ea:	0e 94 ee 00 	call	0x1dc	; 0x1dc <readEPROM>
 3ee:	88 bd       	out	0x28, r24	; 40
			
			pasos++;
 3f0:	80 91 0a 01 	lds	r24, 0x010A	; 0x80010a <pasos>
 3f4:	8f 5f       	subi	r24, 0xFF	; 255
 3f6:	80 93 0a 01 	sts	0x010A, r24	; 0x80010a <pasos>
 3fa:	2f ef       	ldi	r18, 0xFF	; 255
 3fc:	81 ee       	ldi	r24, 0xE1	; 225
 3fe:	94 e0       	ldi	r25, 0x04	; 4
 400:	21 50       	subi	r18, 0x01	; 1
 402:	80 40       	sbci	r24, 0x00	; 0
 404:	90 40       	sbci	r25, 0x00	; 0
 406:	e1 f7       	brne	.-8      	; 0x400 <__EEPROM_REGION_LENGTH__>
 408:	00 c0       	rjmp	.+0      	; 0x40a <__EEPROM_REGION_LENGTH__+0xa>
 40a:	00 00       	nop
 40c:	08 95       	ret
			_delay_ms(100); // Tiempo entre posiciones
			} else {
			modo_repro_iniciado = 0; // Se completó la reproducción
 40e:	10 92 09 01 	sts	0x0109, r1	; 0x800109 <modo_repro_iniciado>
 412:	08 95       	ret

00000414 <escribir_angulo>:
	}
}


void escribir_angulo(){
	PORTB |= (1 << PORTB3) | (1 << PORTB4); // Ambos LEDs
 414:	85 b1       	in	r24, 0x05	; 5
 416:	88 61       	ori	r24, 0x18	; 24
 418:	85 b9       	out	0x05, r24	; 5
	//Reinicio variables de otros modos (redundante)
	pasos= 0;
 41a:	10 92 0a 01 	sts	0x010A, r1	; 0x80010a <pasos>
	entrada = 0;
 41e:	10 92 00 01 	sts	0x0100, r1	; 0x800100 <__DATA_REGION_ORIGIN__>
	save_temporal = 0;
 422:	10 92 0c 01 	sts	0x010C, r1	; 0x80010c <save_temporal>
	addr = 0;
 426:	10 92 0b 01 	sts	0x010B, r1	; 0x80010b <addr>
	modo_repro_iniciado = 0;
 42a:	10 92 09 01 	sts	0x0109, r1	; 0x800109 <modo_repro_iniciado>
 42e:	08 95       	ret

00000430 <main>:
void escribir_angulo();
//************************************************************************************
// Main Function
int main(void)
{
	setup();
 430:	0e 94 ba 00 	call	0x174	; 0x174 <setup>
	while (1)
	{
		switch (modo){
 434:	80 91 02 01 	lds	r24, 0x0102	; 0x800102 <modo>
 438:	82 30       	cpi	r24, 0x02	; 2
 43a:	39 f0       	breq	.+14     	; 0x44a <main+0x1a>
 43c:	83 30       	cpi	r24, 0x03	; 3
 43e:	41 f0       	breq	.+16     	; 0x450 <main+0x20>
 440:	81 30       	cpi	r24, 0x01	; 1
 442:	c1 f7       	brne	.-16     	; 0x434 <main+0x4>
			case 1:
			manual();
 444:	0e 94 45 01 	call	0x28a	; 0x28a <manual>
			break;
 448:	f5 cf       	rjmp	.-22     	; 0x434 <main+0x4>
			
			case 2:
			reproducir_data();
 44a:	0e 94 a9 01 	call	0x352	; 0x352 <reproducir_data>
			break;
 44e:	f2 cf       	rjmp	.-28     	; 0x434 <main+0x4>
			
			case 3:
			escribir_angulo();
 450:	0e 94 0a 02 	call	0x414	; 0x414 <escribir_angulo>
			break;
 454:	ef cf       	rjmp	.-34     	; 0x434 <main+0x4>

00000456 <__vector_21>:


//************************************************************************************
// Interrupt subroutines

ISR(ADC_vect) {
 456:	1f 92       	push	r1
 458:	0f 92       	push	r0
 45a:	0f b6       	in	r0, 0x3f	; 63
 45c:	0f 92       	push	r0
 45e:	11 24       	eor	r1, r1
 460:	2f 93       	push	r18
 462:	3f 93       	push	r19
 464:	4f 93       	push	r20
 466:	5f 93       	push	r21
 468:	6f 93       	push	r22
 46a:	7f 93       	push	r23
 46c:	8f 93       	push	r24
 46e:	9f 93       	push	r25
 470:	af 93       	push	r26
 472:	bf 93       	push	r27
 474:	cf 93       	push	r28
 476:	df 93       	push	r29
 478:	ef 93       	push	r30
 47a:	ff 93       	push	r31
	if (modo != 1) return;
 47c:	80 91 02 01 	lds	r24, 0x0102	; 0x800102 <modo>
 480:	81 30       	cpi	r24, 0x01	; 1
 482:	09 f0       	breq	.+2      	; 0x486 <__vector_21+0x30>
 484:	ab c0       	rjmp	.+342    	; 0x5dc <__vector_21+0x186>

	multiplexar_ADC = ADMUX & 0x0F;
 486:	c0 91 7c 00 	lds	r28, 0x007C	; 0x80007c <__TEXT_REGION_LENGTH__+0x7f807c>
 48a:	cf 70       	andi	r28, 0x0F	; 15
 48c:	c0 93 0d 01 	sts	0x010D, r28	; 0x80010d <multiplexar_ADC>
	ADC_value = ADCH; // Valor ADC de 8 bits
 490:	80 91 79 00 	lds	r24, 0x0079	; 0x800079 <__TEXT_REGION_LENGTH__+0x7f8079>
 494:	80 93 10 01 	sts	0x0110, r24	; 0x800110 <ADC_value>
	uint8_t angle;
	uint8_t idx = multiplexar_ADC - 3; // índice 0 a 3
 498:	dd ef       	ldi	r29, 0xFD	; 253
 49a:	dc 0f       	add	r29, r28
	
	// Canal ADC4 invertir valor debido a la conexión física
	if (multiplexar_ADC == 4) {
 49c:	c4 30       	cpi	r28, 0x04	; 4
 49e:	19 f4       	brne	.+6      	; 0x4a6 <__vector_21+0x50>
		ADC_value = 255 - ADC_value;
 4a0:	80 95       	com	r24
 4a2:	80 93 10 01 	sts	0x0110, r24	; 0x800110 <ADC_value>
	}
	
	// Escalar ángulo según el canal
	if (multiplexar_ADC == 3 || multiplexar_ADC == 4 || multiplexar_ADC == 5) {
 4a6:	d3 30       	cpi	r29, 0x03	; 3
 4a8:	80 f4       	brcc	.+32     	; 0x4ca <__vector_21+0x74>
		if (ADC_value <= 127) {
 4aa:	20 91 10 01 	lds	r18, 0x0110	; 0x800110 <ADC_value>
 4ae:	22 23       	and	r18, r18
 4b0:	e4 f0       	brlt	.+56     	; 0x4ea <__vector_21+0x94>
			angle = (ADC_value * 180UL) / 127; // UL = unsigned long, se coloca ya que puede desbordarse al momento de realizar la operación, entero sin signo de 32 bits
 4b2:	30 e0       	ldi	r19, 0x00	; 0
 4b4:	a4 eb       	ldi	r26, 0xB4	; 180
 4b6:	b0 e0       	ldi	r27, 0x00	; 0
 4b8:	0e 94 29 04 	call	0x852	; 0x852 <__umulhisi3>
 4bc:	2f e7       	ldi	r18, 0x7F	; 127
 4be:	30 e0       	ldi	r19, 0x00	; 0
 4c0:	40 e0       	ldi	r20, 0x00	; 0
 4c2:	50 e0       	ldi	r21, 0x00	; 0
 4c4:	0e 94 07 04 	call	0x80e	; 0x80e <__udivmodsi4>
 4c8:	11 c0       	rjmp	.+34     	; 0x4ec <__vector_21+0x96>
			} else {
			angle = 180;
		}
		} else if (multiplexar_ADC == 6) {
 4ca:	c6 30       	cpi	r28, 0x06	; 6
 4cc:	79 f4       	brne	.+30     	; 0x4ec <__vector_21+0x96>
		angle = (ADC_value * 180UL) / 255;
 4ce:	20 91 10 01 	lds	r18, 0x0110	; 0x800110 <ADC_value>
 4d2:	30 e0       	ldi	r19, 0x00	; 0
 4d4:	a4 eb       	ldi	r26, 0xB4	; 180
 4d6:	b0 e0       	ldi	r27, 0x00	; 0
 4d8:	0e 94 29 04 	call	0x852	; 0x852 <__umulhisi3>
 4dc:	2f ef       	ldi	r18, 0xFF	; 255
 4de:	30 e0       	ldi	r19, 0x00	; 0
 4e0:	40 e0       	ldi	r20, 0x00	; 0
 4e2:	50 e0       	ldi	r21, 0x00	; 0
 4e4:	0e 94 07 04 	call	0x80e	; 0x80e <__udivmodsi4>
 4e8:	01 c0       	rjmp	.+2      	; 0x4ec <__vector_21+0x96>
	// Escalar ángulo según el canal
	if (multiplexar_ADC == 3 || multiplexar_ADC == 4 || multiplexar_ADC == 5) {
		if (ADC_value <= 127) {
			angle = (ADC_value * 180UL) / 127; // UL = unsigned long, se coloca ya que puede desbordarse al momento de realizar la operación, entero sin signo de 32 bits
			} else {
			angle = 180;
 4ea:	24 eb       	ldi	r18, 0xB4	; 180
	//Filtro la señal
	//Forma original
	//filtro_angulo = alfa * angle + (1-alfa) * filtro_angulo // FIltro de media exponencial
	// Para no usar flotantes ya que alfa debe de ser un número cercano a 0 pero diferente de 1 entonces uso porcentajes
	// alfa = 0.1 ? usamos 10 y 90 como porcentaje (factor 100)
	filtro_angulos[idx] = (angle * 10 + filtro_angulos[idx] * 90) / 100;
 4ec:	30 e0       	ldi	r19, 0x00	; 0
 4ee:	c9 01       	movw	r24, r18
 4f0:	88 0f       	add	r24, r24
 4f2:	99 1f       	adc	r25, r25
 4f4:	22 0f       	add	r18, r18
 4f6:	33 1f       	adc	r19, r19
 4f8:	22 0f       	add	r18, r18
 4fa:	33 1f       	adc	r19, r19
 4fc:	22 0f       	add	r18, r18
 4fe:	33 1f       	adc	r19, r19
 500:	82 0f       	add	r24, r18
 502:	93 1f       	adc	r25, r19
 504:	ed 2f       	mov	r30, r29
 506:	f0 e0       	ldi	r31, 0x00	; 0
 508:	eb 5f       	subi	r30, 0xFB	; 251
 50a:	fe 4f       	sbci	r31, 0xFE	; 254
 50c:	20 81       	ld	r18, Z
 50e:	3a e5       	ldi	r19, 0x5A	; 90
 510:	23 9f       	mul	r18, r19
 512:	80 0d       	add	r24, r0
 514:	91 1d       	adc	r25, r1
 516:	11 24       	eor	r1, r1
 518:	64 e6       	ldi	r22, 0x64	; 100
 51a:	70 e0       	ldi	r23, 0x00	; 0
 51c:	0e 94 f3 03 	call	0x7e6	; 0x7e6 <__divmodhi4>
 520:	60 83       	st	Z, r22

	// Calcular pulso PWM
	uint16_t servo_pulse;

	switch (multiplexar_ADC) {
 522:	c4 30       	cpi	r28, 0x04	; 4
 524:	f1 f0       	breq	.+60     	; 0x562 <__vector_21+0x10c>
 526:	18 f4       	brcc	.+6      	; 0x52e <__vector_21+0xd8>
 528:	c3 30       	cpi	r28, 0x03	; 3
 52a:	31 f0       	breq	.+12     	; 0x538 <__vector_21+0xe2>
 52c:	52 c0       	rjmp	.+164    	; 0x5d2 <__vector_21+0x17c>
 52e:	c5 30       	cpi	r28, 0x05	; 5
 530:	69 f1       	breq	.+90     	; 0x58c <__vector_21+0x136>
 532:	c6 30       	cpi	r28, 0x06	; 6
 534:	e9 f1       	breq	.+122    	; 0x5b0 <__vector_21+0x15a>
 536:	4d c0       	rjmp	.+154    	; 0x5d2 <__vector_21+0x17c>
		case 3: // Servo 1 (base)
		servo_pulse = SERVO_MIN + (filtro_angulos[idx] * (SERVO_MAX - SERVO_MIN)) / 180;
 538:	2b e1       	ldi	r18, 0x1B	; 27
 53a:	62 9f       	mul	r22, r18
 53c:	c0 01       	movw	r24, r0
 53e:	11 24       	eor	r1, r1
 540:	64 eb       	ldi	r22, 0xB4	; 180
 542:	70 e0       	ldi	r23, 0x00	; 0
 544:	0e 94 f3 03 	call	0x7e6	; 0x7e6 <__divmodhi4>
 548:	67 5f       	subi	r22, 0xF7	; 247
 54a:	7f 4f       	sbci	r23, 0xFF	; 255
		OCR1B = servo_pulse;
 54c:	70 93 8b 00 	sts	0x008B, r23	; 0x80008b <__TEXT_REGION_LENGTH__+0x7f808b>
 550:	60 93 8a 00 	sts	0x008A, r22	; 0x80008a <__TEXT_REGION_LENGTH__+0x7f808a>
		ADMUX = (ADMUX & 0xF0) | 4;
 554:	ec e7       	ldi	r30, 0x7C	; 124
 556:	f0 e0       	ldi	r31, 0x00	; 0
 558:	80 81       	ld	r24, Z
 55a:	80 7f       	andi	r24, 0xF0	; 240
 55c:	84 60       	ori	r24, 0x04	; 4
 55e:	80 83       	st	Z, r24
		break;
 560:	38 c0       	rjmp	.+112    	; 0x5d2 <__vector_21+0x17c>

		case 4: // Servo 2 (antebrazo)
		servo_pulse = SERVO_MIN_2 + (filtro_angulos[idx] * (SERVO_MAX_2 - SERVO_MIN_2)) / 180;
 562:	3b e1       	ldi	r19, 0x1B	; 27
 564:	63 9f       	mul	r22, r19
 566:	c0 01       	movw	r24, r0
 568:	11 24       	eor	r1, r1
 56a:	64 eb       	ldi	r22, 0xB4	; 180
 56c:	70 e0       	ldi	r23, 0x00	; 0
 56e:	0e 94 f3 03 	call	0x7e6	; 0x7e6 <__divmodhi4>
 572:	67 5f       	subi	r22, 0xF7	; 247
 574:	7f 4f       	sbci	r23, 0xFF	; 255
		OCR1A = servo_pulse;
 576:	70 93 89 00 	sts	0x0089, r23	; 0x800089 <__TEXT_REGION_LENGTH__+0x7f8089>
 57a:	60 93 88 00 	sts	0x0088, r22	; 0x800088 <__TEXT_REGION_LENGTH__+0x7f8088>
		ADMUX = (ADMUX & 0xF0) | 5;
 57e:	ec e7       	ldi	r30, 0x7C	; 124
 580:	f0 e0       	ldi	r31, 0x00	; 0
 582:	80 81       	ld	r24, Z
 584:	80 7f       	andi	r24, 0xF0	; 240
 586:	85 60       	ori	r24, 0x05	; 5
 588:	80 83       	st	Z, r24
		break;
 58a:	23 c0       	rjmp	.+70     	; 0x5d2 <__vector_21+0x17c>

		case 5: // Servo 3 (brazo)
		servo_pulse = SERVO_MIN_3 + (filtro_angulos[idx] * (SERVO_MAX_3 - SERVO_MIN_3)) / 180;
 58c:	2b e1       	ldi	r18, 0x1B	; 27
 58e:	62 9f       	mul	r22, r18
 590:	c0 01       	movw	r24, r0
 592:	11 24       	eor	r1, r1
 594:	64 eb       	ldi	r22, 0xB4	; 180
 596:	70 e0       	ldi	r23, 0x00	; 0
 598:	0e 94 f3 03 	call	0x7e6	; 0x7e6 <__divmodhi4>
 59c:	66 5f       	subi	r22, 0xF6	; 246
 59e:	7f 4f       	sbci	r23, 0xFF	; 255
		OCR0A = servo_pulse;
 5a0:	67 bd       	out	0x27, r22	; 39
		ADMUX = (ADMUX & 0xF0) | 6;
 5a2:	ec e7       	ldi	r30, 0x7C	; 124
 5a4:	f0 e0       	ldi	r31, 0x00	; 0
 5a6:	80 81       	ld	r24, Z
 5a8:	80 7f       	andi	r24, 0xF0	; 240
 5aa:	86 60       	ori	r24, 0x06	; 6
 5ac:	80 83       	st	Z, r24
		break;
 5ae:	11 c0       	rjmp	.+34     	; 0x5d2 <__vector_21+0x17c>

		case 6: // Servo 4 (garra)
		servo_pulse = SERVO_MIN_4 + (filtro_angulos[idx] * (SERVO_MAX_4 - SERVO_MIN_4)) / 180;
 5b0:	30 e1       	ldi	r19, 0x10	; 16
 5b2:	63 9f       	mul	r22, r19
 5b4:	c0 01       	movw	r24, r0
 5b6:	11 24       	eor	r1, r1
 5b8:	64 eb       	ldi	r22, 0xB4	; 180
 5ba:	70 e0       	ldi	r23, 0x00	; 0
 5bc:	0e 94 f3 03 	call	0x7e6	; 0x7e6 <__divmodhi4>
 5c0:	6c 5e       	subi	r22, 0xEC	; 236
 5c2:	7f 4f       	sbci	r23, 0xFF	; 255
		OCR0B = servo_pulse;
 5c4:	68 bd       	out	0x28, r22	; 40
		ADMUX = (ADMUX & 0xF0) | 3;
 5c6:	ec e7       	ldi	r30, 0x7C	; 124
 5c8:	f0 e0       	ldi	r31, 0x00	; 0
 5ca:	80 81       	ld	r24, Z
 5cc:	80 7f       	andi	r24, 0xF0	; 240
 5ce:	83 60       	ori	r24, 0x03	; 3
 5d0:	80 83       	st	Z, r24
		break;
	}

	ADCSRA |= (1 << ADSC); // Iniciar nueva conversión
 5d2:	ea e7       	ldi	r30, 0x7A	; 122
 5d4:	f0 e0       	ldi	r31, 0x00	; 0
 5d6:	80 81       	ld	r24, Z
 5d8:	80 64       	ori	r24, 0x40	; 64
 5da:	80 83       	st	Z, r24
}
 5dc:	ff 91       	pop	r31
 5de:	ef 91       	pop	r30
 5e0:	df 91       	pop	r29
 5e2:	cf 91       	pop	r28
 5e4:	bf 91       	pop	r27
 5e6:	af 91       	pop	r26
 5e8:	9f 91       	pop	r25
 5ea:	8f 91       	pop	r24
 5ec:	7f 91       	pop	r23
 5ee:	6f 91       	pop	r22
 5f0:	5f 91       	pop	r21
 5f2:	4f 91       	pop	r20
 5f4:	3f 91       	pop	r19
 5f6:	2f 91       	pop	r18
 5f8:	0f 90       	pop	r0
 5fa:	0f be       	out	0x3f, r0	; 63
 5fc:	0f 90       	pop	r0
 5fe:	1f 90       	pop	r1
 600:	18 95       	reti

00000602 <__vector_18>:

#define MAX_BUFFER 20
volatile char buffer[MAX_BUFFER];
volatile uint8_t index = 0; // Ïndice del bufer para ir guardando los caracteres recibidos 

ISR(USART_RX_vect) {
 602:	1f 92       	push	r1
 604:	0f 92       	push	r0
 606:	0f b6       	in	r0, 0x3f	; 63
 608:	0f 92       	push	r0
 60a:	11 24       	eor	r1, r1
 60c:	2f 93       	push	r18
 60e:	3f 93       	push	r19
 610:	4f 93       	push	r20
 612:	5f 93       	push	r21
 614:	6f 93       	push	r22
 616:	7f 93       	push	r23
 618:	8f 93       	push	r24
 61a:	9f 93       	push	r25
 61c:	af 93       	push	r26
 61e:	bf 93       	push	r27
 620:	ef 93       	push	r30
 622:	ff 93       	push	r31
 624:	cf 93       	push	r28
 626:	df 93       	push	r29
 628:	00 d0       	rcall	.+0      	; 0x62a <__vector_18+0x28>
 62a:	00 d0       	rcall	.+0      	; 0x62c <__vector_18+0x2a>
 62c:	cd b7       	in	r28, 0x3d	; 61
 62e:	de b7       	in	r29, 0x3e	; 62
	if (modo != 3) return; // Si no está en modo 3 ignora los valores recibidos y sale de la ISR
 630:	80 91 02 01 	lds	r24, 0x0102	; 0x800102 <modo>
 634:	83 30       	cpi	r24, 0x03	; 3
 636:	09 f0       	breq	.+2      	; 0x63a <__vector_18+0x38>
 638:	9d c0       	rjmp	.+314    	; 0x774 <__vector_18+0x172>

	char recibido = UDR0;
 63a:	80 91 c6 00 	lds	r24, 0x00C6	; 0x8000c6 <__TEXT_REGION_LENGTH__+0x7f80c6>

	if (recibido == '\n' || recibido == '\r') { // Si se recibe saldo de línea o retorno inidca que se finalizó la transmisión
 63e:	8a 30       	cpi	r24, 0x0A	; 10
 640:	19 f0       	breq	.+6      	; 0x648 <__vector_18+0x46>
 642:	8d 30       	cpi	r24, 0x0D	; 13
 644:	09 f0       	breq	.+2      	; 0x648 <__vector_18+0x46>
 646:	8c c0       	rjmp	.+280    	; 0x760 <__vector_18+0x15e>
		buffer[index] = '\0'; // Terminación de la línea
 648:	e0 91 04 01 	lds	r30, 0x0104	; 0x800104 <__data_end>
 64c:	f0 e0       	ldi	r31, 0x00	; 0
 64e:	ef 5e       	subi	r30, 0xEF	; 239
 650:	fe 4f       	sbci	r31, 0xFE	; 254
 652:	10 82       	st	Z, r1
		
		// En esta parte se convierte el valor ascci (texto) a un número
		uint8_t valores[4] = {0}; //Arreglo para guardar los 4 caracteres de los ángulos (180,)
 654:	19 82       	std	Y+1, r1	; 0x01
 656:	1a 82       	std	Y+2, r1	; 0x02
 658:	1b 82       	std	Y+3, r1	; 0x03
 65a:	1c 82       	std	Y+4, r1	; 0x04
		uint8_t val_idx = 0;
		uint16_t temp = 0; // Se usa para acumular dígitos

		for (uint8_t i = 0; i <= index; i++) { // recorre cada caractér del buffer 
 65c:	20 e0       	ldi	r18, 0x00	; 0
		buffer[index] = '\0'; // Terminación de la línea
		
		// En esta parte se convierte el valor ascci (texto) a un número
		uint8_t valores[4] = {0}; //Arreglo para guardar los 4 caracteres de los ángulos (180,)
		uint8_t val_idx = 0;
		uint16_t temp = 0; // Se usa para acumular dígitos
 65e:	80 e0       	ldi	r24, 0x00	; 0
 660:	90 e0       	ldi	r25, 0x00	; 0
	if (recibido == '\n' || recibido == '\r') { // Si se recibe saldo de línea o retorno inidca que se finalizó la transmisión
		buffer[index] = '\0'; // Terminación de la línea
		
		// En esta parte se convierte el valor ascci (texto) a un número
		uint8_t valores[4] = {0}; //Arreglo para guardar los 4 caracteres de los ángulos (180,)
		uint8_t val_idx = 0;
 662:	60 e0       	ldi	r22, 0x00	; 0
		uint16_t temp = 0; // Se usa para acumular dígitos

		for (uint8_t i = 0; i <= index; i++) { // recorre cada caractér del buffer 
 664:	2e c0       	rjmp	.+92     	; 0x6c2 <__vector_18+0xc0>
			char c = buffer[i]; // Agarra el valor actual y pasa a procesarlo 
 666:	e2 2f       	mov	r30, r18
 668:	f0 e0       	ldi	r31, 0x00	; 0
 66a:	ef 5e       	subi	r30, 0xEF	; 239
 66c:	fe 4f       	sbci	r31, 0xFE	; 254
 66e:	30 81       	ld	r19, Z

			if (c >= '0' && c <= '9') { // Si el caractér está entre 0 y 9
 670:	40 ed       	ldi	r20, 0xD0	; 208
 672:	43 0f       	add	r20, r19
 674:	4a 30       	cpi	r20, 0x0A	; 10
 676:	78 f4       	brcc	.+30     	; 0x696 <__vector_18+0x94>
				temp = temp * 10 + (c - '0'); // Va barriendo los dígitos y multiplicarlos por 10 para hacer unidad, decena y centena
 678:	ac 01       	movw	r20, r24
 67a:	44 0f       	add	r20, r20
 67c:	55 1f       	adc	r21, r21
 67e:	88 0f       	add	r24, r24
 680:	99 1f       	adc	r25, r25
 682:	88 0f       	add	r24, r24
 684:	99 1f       	adc	r25, r25
 686:	88 0f       	add	r24, r24
 688:	99 1f       	adc	r25, r25
 68a:	84 0f       	add	r24, r20
 68c:	95 1f       	adc	r25, r21
 68e:	83 0f       	add	r24, r19
 690:	91 1d       	adc	r25, r1
 692:	c0 97       	sbiw	r24, 0x30	; 48
 694:	15 c0       	rjmp	.+42     	; 0x6c0 <__vector_18+0xbe>
			}
			else if (c == ',' || c == '\0') { // Si hay coma o \0 termina el dígito y lo guarda en el arreglo valores 
 696:	3c 32       	cpi	r19, 0x2C	; 44
 698:	11 f0       	breq	.+4      	; 0x69e <__vector_18+0x9c>
 69a:	31 11       	cpse	r19, r1
 69c:	11 c0       	rjmp	.+34     	; 0x6c0 <__vector_18+0xbe>
				if (val_idx < 4) {
 69e:	64 30       	cpi	r22, 0x04	; 4
 6a0:	78 f4       	brcc	.+30     	; 0x6c0 <__vector_18+0xbe>
					if (temp > 180) temp = 180; // Limita el ángulo a 180 por que ese valor trabaja el servo
 6a2:	85 3b       	cpi	r24, 0xB5	; 181
 6a4:	91 05       	cpc	r25, r1
 6a6:	10 f0       	brcs	.+4      	; 0x6ac <__vector_18+0xaa>
 6a8:	84 eb       	ldi	r24, 0xB4	; 180
 6aa:	90 e0       	ldi	r25, 0x00	; 0
					valores[val_idx++] = temp; 
 6ac:	e1 e0       	ldi	r30, 0x01	; 1
 6ae:	f0 e0       	ldi	r31, 0x00	; 0
 6b0:	ec 0f       	add	r30, r28
 6b2:	fd 1f       	adc	r31, r29
 6b4:	e6 0f       	add	r30, r22
 6b6:	f1 1d       	adc	r31, r1
 6b8:	80 83       	st	Z, r24
 6ba:	6f 5f       	subi	r22, 0xFF	; 255
					temp = 0; // Reinicia para construir nuevo número 
 6bc:	80 e0       	ldi	r24, 0x00	; 0
 6be:	90 e0       	ldi	r25, 0x00	; 0
		// En esta parte se convierte el valor ascci (texto) a un número
		uint8_t valores[4] = {0}; //Arreglo para guardar los 4 caracteres de los ángulos (180,)
		uint8_t val_idx = 0;
		uint16_t temp = 0; // Se usa para acumular dígitos

		for (uint8_t i = 0; i <= index; i++) { // recorre cada caractér del buffer 
 6c0:	2f 5f       	subi	r18, 0xFF	; 255
 6c2:	30 91 04 01 	lds	r19, 0x0104	; 0x800104 <__data_end>
 6c6:	32 17       	cp	r19, r18
 6c8:	70 f6       	brcc	.-100    	; 0x666 <__vector_18+0x64>
			}
		}

		// Aplicar valores a servos, la lógica es igual que en el ADC_vect
		//PWM = SERVO_MIN + (valor * ancho_pwm) / 180
		OCR1B = SERVO_MIN + (valores[0] * (SERVO_MAX - SERVO_MIN)) / 180;
 6ca:	89 81       	ldd	r24, Y+1	; 0x01
 6cc:	2b e1       	ldi	r18, 0x1B	; 27
 6ce:	28 9f       	mul	r18, r24
 6d0:	c0 01       	movw	r24, r0
 6d2:	11 24       	eor	r1, r1
 6d4:	e4 eb       	ldi	r30, 0xB4	; 180
 6d6:	f0 e0       	ldi	r31, 0x00	; 0
 6d8:	bf 01       	movw	r22, r30
 6da:	0e 94 f3 03 	call	0x7e6	; 0x7e6 <__divmodhi4>
 6de:	67 5f       	subi	r22, 0xF7	; 247
 6e0:	7f 4f       	sbci	r23, 0xFF	; 255
 6e2:	70 93 8b 00 	sts	0x008B, r23	; 0x80008b <__TEXT_REGION_LENGTH__+0x7f808b>
 6e6:	60 93 8a 00 	sts	0x008A, r22	; 0x80008a <__TEXT_REGION_LENGTH__+0x7f808a>
		OCR1A = SERVO_MIN_2 + (valores[1] * (SERVO_MAX_2 - SERVO_MIN_2)) / 180;
 6ea:	8a 81       	ldd	r24, Y+2	; 0x02
 6ec:	28 9f       	mul	r18, r24
 6ee:	c0 01       	movw	r24, r0
 6f0:	11 24       	eor	r1, r1
 6f2:	bf 01       	movw	r22, r30
 6f4:	0e 94 f3 03 	call	0x7e6	; 0x7e6 <__divmodhi4>
 6f8:	67 5f       	subi	r22, 0xF7	; 247
 6fa:	7f 4f       	sbci	r23, 0xFF	; 255
 6fc:	70 93 89 00 	sts	0x0089, r23	; 0x800089 <__TEXT_REGION_LENGTH__+0x7f8089>
 700:	60 93 88 00 	sts	0x0088, r22	; 0x800088 <__TEXT_REGION_LENGTH__+0x7f8088>
		OCR0A = SERVO_MIN_3 + (valores[2] * (SERVO_MAX_3 - SERVO_MIN_3)) / 180;
 704:	8b 81       	ldd	r24, Y+3	; 0x03
 706:	28 9f       	mul	r18, r24
 708:	c0 01       	movw	r24, r0
 70a:	11 24       	eor	r1, r1
 70c:	bf 01       	movw	r22, r30
 70e:	0e 94 f3 03 	call	0x7e6	; 0x7e6 <__divmodhi4>
 712:	66 5f       	subi	r22, 0xF6	; 246
 714:	67 bd       	out	0x27, r22	; 39
		OCR0B = SERVO_MIN_4 + (valores[3] * (SERVO_MAX_4 - SERVO_MIN_4)) / 180;
 716:	8c 81       	ldd	r24, Y+4	; 0x04
 718:	20 e1       	ldi	r18, 0x10	; 16
 71a:	82 9f       	mul	r24, r18
 71c:	c0 01       	movw	r24, r0
 71e:	11 24       	eor	r1, r1
 720:	bf 01       	movw	r22, r30
 722:	0e 94 f3 03 	call	0x7e6	; 0x7e6 <__divmodhi4>
 726:	6c 5e       	subi	r22, 0xEC	; 236
 728:	68 bd       	out	0x28, r22	; 40

		// Enviar feedback por UART
		enviar_num_UART(valores[0]);
 72a:	89 81       	ldd	r24, Y+1	; 0x01
 72c:	0e 94 f8 00 	call	0x1f0	; 0x1f0 <enviar_num_UART>
		enviar_char_UART(',');
 730:	8c e2       	ldi	r24, 0x2C	; 44
 732:	0e 94 3e 01 	call	0x27c	; 0x27c <enviar_char_UART>
		enviar_num_UART(valores[1]);
 736:	8a 81       	ldd	r24, Y+2	; 0x02
 738:	0e 94 f8 00 	call	0x1f0	; 0x1f0 <enviar_num_UART>
		enviar_char_UART(',');
 73c:	8c e2       	ldi	r24, 0x2C	; 44
 73e:	0e 94 3e 01 	call	0x27c	; 0x27c <enviar_char_UART>
		enviar_num_UART(valores[2]);
 742:	8b 81       	ldd	r24, Y+3	; 0x03
 744:	0e 94 f8 00 	call	0x1f0	; 0x1f0 <enviar_num_UART>
		enviar_char_UART(',');
 748:	8c e2       	ldi	r24, 0x2C	; 44
 74a:	0e 94 3e 01 	call	0x27c	; 0x27c <enviar_char_UART>
		enviar_num_UART(valores[3]);
 74e:	8c 81       	ldd	r24, Y+4	; 0x04
 750:	0e 94 f8 00 	call	0x1f0	; 0x1f0 <enviar_num_UART>
		enviar_char_UART('\n');
 754:	8a e0       	ldi	r24, 0x0A	; 10
 756:	0e 94 3e 01 	call	0x27c	; 0x27c <enviar_char_UART>

		index = 0;
 75a:	10 92 04 01 	sts	0x0104, r1	; 0x800104 <__data_end>
ISR(USART_RX_vect) {
	if (modo != 3) return; // Si no está en modo 3 ignora los valores recibidos y sale de la ISR

	char recibido = UDR0;

	if (recibido == '\n' || recibido == '\r') { // Si se recibe saldo de línea o retorno inidca que se finalizó la transmisión
 75e:	0a c0       	rjmp	.+20     	; 0x774 <__vector_18+0x172>
		enviar_char_UART('\n');

		index = 0;
	}
	else {
		buffer[index++] = recibido; //Si no se recibió un \n o \r guarda el carácter en el buffer y aumenta el índice.
 760:	e0 91 04 01 	lds	r30, 0x0104	; 0x800104 <__data_end>
 764:	91 e0       	ldi	r25, 0x01	; 1
 766:	9e 0f       	add	r25, r30
 768:	90 93 04 01 	sts	0x0104, r25	; 0x800104 <__data_end>
 76c:	f0 e0       	ldi	r31, 0x00	; 0
 76e:	ef 5e       	subi	r30, 0xEF	; 239
 770:	fe 4f       	sbci	r31, 0xFE	; 254
 772:	80 83       	st	Z, r24
	}
}
 774:	0f 90       	pop	r0
 776:	0f 90       	pop	r0
 778:	0f 90       	pop	r0
 77a:	0f 90       	pop	r0
 77c:	df 91       	pop	r29
 77e:	cf 91       	pop	r28
 780:	ff 91       	pop	r31
 782:	ef 91       	pop	r30
 784:	bf 91       	pop	r27
 786:	af 91       	pop	r26
 788:	9f 91       	pop	r25
 78a:	8f 91       	pop	r24
 78c:	7f 91       	pop	r23
 78e:	6f 91       	pop	r22
 790:	5f 91       	pop	r21
 792:	4f 91       	pop	r20
 794:	3f 91       	pop	r19
 796:	2f 91       	pop	r18
 798:	0f 90       	pop	r0
 79a:	0f be       	out	0x3f, r0	; 63
 79c:	0f 90       	pop	r0
 79e:	1f 90       	pop	r1
 7a0:	18 95       	reti

000007a2 <__vector_4>:


ISR(PCINT1_vect) {
 7a2:	1f 92       	push	r1
 7a4:	0f 92       	push	r0
 7a6:	0f b6       	in	r0, 0x3f	; 63
 7a8:	0f 92       	push	r0
 7aa:	11 24       	eor	r1, r1
 7ac:	8f 93       	push	r24
 7ae:	9f 93       	push	r25
	// Verificar estado actual de los botones
	if (!(PINC & (1 << PORTC0))) {  // Si PC0 está presionado (pull-up)
 7b0:	30 99       	sbic	0x06, 0	; 6
 7b2:	0d c0       	rjmp	.+26     	; 0x7ce <__vector_4+0x2c>
		modo++;
 7b4:	80 91 02 01 	lds	r24, 0x0102	; 0x800102 <modo>
 7b8:	8f 5f       	subi	r24, 0xFF	; 255
 7ba:	80 93 02 01 	sts	0x0102, r24	; 0x800102 <modo>
		if (modo >= cant_modo){ // Reiniciar a 1 el modo si se llegó al últmio modo
 7be:	90 91 01 01 	lds	r25, 0x0101	; 0x800101 <cant_modo>
 7c2:	89 17       	cp	r24, r25
 7c4:	48 f0       	brcs	.+18     	; 0x7d8 <__vector_4+0x36>
			modo = 1;
 7c6:	81 e0       	ldi	r24, 0x01	; 1
 7c8:	80 93 02 01 	sts	0x0102, r24	; 0x800102 <modo>
 7cc:	05 c0       	rjmp	.+10     	; 0x7d8 <__vector_4+0x36>
		}
	} else if (!(PINC & (1 << PORTC1))){
 7ce:	31 99       	sbic	0x06, 1	; 6
 7d0:	03 c0       	rjmp	.+6      	; 0x7d8 <__vector_4+0x36>
		action_button = 1; // Activar bandera de acción
 7d2:	81 e0       	ldi	r24, 0x01	; 1
 7d4:	80 93 0f 01 	sts	0x010F, r24	; 0x80010f <action_button>
	}
}
 7d8:	9f 91       	pop	r25
 7da:	8f 91       	pop	r24
 7dc:	0f 90       	pop	r0
 7de:	0f be       	out	0x3f, r0	; 63
 7e0:	0f 90       	pop	r0
 7e2:	1f 90       	pop	r1
 7e4:	18 95       	reti

000007e6 <__divmodhi4>:
 7e6:	97 fb       	bst	r25, 7
 7e8:	07 2e       	mov	r0, r23
 7ea:	16 f4       	brtc	.+4      	; 0x7f0 <__divmodhi4+0xa>
 7ec:	00 94       	com	r0
 7ee:	07 d0       	rcall	.+14     	; 0x7fe <__divmodhi4_neg1>
 7f0:	77 fd       	sbrc	r23, 7
 7f2:	09 d0       	rcall	.+18     	; 0x806 <__divmodhi4_neg2>
 7f4:	0e 94 38 04 	call	0x870	; 0x870 <__udivmodhi4>
 7f8:	07 fc       	sbrc	r0, 7
 7fa:	05 d0       	rcall	.+10     	; 0x806 <__divmodhi4_neg2>
 7fc:	3e f4       	brtc	.+14     	; 0x80c <__divmodhi4_exit>

000007fe <__divmodhi4_neg1>:
 7fe:	90 95       	com	r25
 800:	81 95       	neg	r24
 802:	9f 4f       	sbci	r25, 0xFF	; 255
 804:	08 95       	ret

00000806 <__divmodhi4_neg2>:
 806:	70 95       	com	r23
 808:	61 95       	neg	r22
 80a:	7f 4f       	sbci	r23, 0xFF	; 255

0000080c <__divmodhi4_exit>:
 80c:	08 95       	ret

0000080e <__udivmodsi4>:
 80e:	a1 e2       	ldi	r26, 0x21	; 33
 810:	1a 2e       	mov	r1, r26
 812:	aa 1b       	sub	r26, r26
 814:	bb 1b       	sub	r27, r27
 816:	fd 01       	movw	r30, r26
 818:	0d c0       	rjmp	.+26     	; 0x834 <__udivmodsi4_ep>

0000081a <__udivmodsi4_loop>:
 81a:	aa 1f       	adc	r26, r26
 81c:	bb 1f       	adc	r27, r27
 81e:	ee 1f       	adc	r30, r30
 820:	ff 1f       	adc	r31, r31
 822:	a2 17       	cp	r26, r18
 824:	b3 07       	cpc	r27, r19
 826:	e4 07       	cpc	r30, r20
 828:	f5 07       	cpc	r31, r21
 82a:	20 f0       	brcs	.+8      	; 0x834 <__udivmodsi4_ep>
 82c:	a2 1b       	sub	r26, r18
 82e:	b3 0b       	sbc	r27, r19
 830:	e4 0b       	sbc	r30, r20
 832:	f5 0b       	sbc	r31, r21

00000834 <__udivmodsi4_ep>:
 834:	66 1f       	adc	r22, r22
 836:	77 1f       	adc	r23, r23
 838:	88 1f       	adc	r24, r24
 83a:	99 1f       	adc	r25, r25
 83c:	1a 94       	dec	r1
 83e:	69 f7       	brne	.-38     	; 0x81a <__udivmodsi4_loop>
 840:	60 95       	com	r22
 842:	70 95       	com	r23
 844:	80 95       	com	r24
 846:	90 95       	com	r25
 848:	9b 01       	movw	r18, r22
 84a:	ac 01       	movw	r20, r24
 84c:	bd 01       	movw	r22, r26
 84e:	cf 01       	movw	r24, r30
 850:	08 95       	ret

00000852 <__umulhisi3>:
 852:	a2 9f       	mul	r26, r18
 854:	b0 01       	movw	r22, r0
 856:	b3 9f       	mul	r27, r19
 858:	c0 01       	movw	r24, r0
 85a:	a3 9f       	mul	r26, r19
 85c:	70 0d       	add	r23, r0
 85e:	81 1d       	adc	r24, r1
 860:	11 24       	eor	r1, r1
 862:	91 1d       	adc	r25, r1
 864:	b2 9f       	mul	r27, r18
 866:	70 0d       	add	r23, r0
 868:	81 1d       	adc	r24, r1
 86a:	11 24       	eor	r1, r1
 86c:	91 1d       	adc	r25, r1
 86e:	08 95       	ret

00000870 <__udivmodhi4>:
 870:	aa 1b       	sub	r26, r26
 872:	bb 1b       	sub	r27, r27
 874:	51 e1       	ldi	r21, 0x11	; 17
 876:	07 c0       	rjmp	.+14     	; 0x886 <__udivmodhi4_ep>

00000878 <__udivmodhi4_loop>:
 878:	aa 1f       	adc	r26, r26
 87a:	bb 1f       	adc	r27, r27
 87c:	a6 17       	cp	r26, r22
 87e:	b7 07       	cpc	r27, r23
 880:	10 f0       	brcs	.+4      	; 0x886 <__udivmodhi4_ep>
 882:	a6 1b       	sub	r26, r22
 884:	b7 0b       	sbc	r27, r23

00000886 <__udivmodhi4_ep>:
 886:	88 1f       	adc	r24, r24
 888:	99 1f       	adc	r25, r25
 88a:	5a 95       	dec	r21
 88c:	a9 f7       	brne	.-22     	; 0x878 <__udivmodhi4_loop>
 88e:	80 95       	com	r24
 890:	90 95       	com	r25
 892:	bc 01       	movw	r22, r24
 894:	cd 01       	movw	r24, r26
 896:	08 95       	ret

00000898 <_exit>:
 898:	f8 94       	cli

0000089a <__stop_program>:
 89a:	ff cf       	rjmp	.-2      	; 0x89a <__stop_program>
